; Function Attrs: mustprogress uwtable
define hidden noundef double @_ZN6cvtest15checkSimilarityERKN2cv11_InputArrayES3_(ptr noundef nonnull align 8 dereferenceable(24) %0, ptr noundef nonnull align 8 dereferenceable(24) %1) local_unnamed_addr #4 personality ptr @__gxx_personality_v0 {
  %3 = alloca %"class.cv::Mat", align 8
  %4 = alloca %"class.cv::_InputArray", align 8
  %5 = alloca %"class.cv::Mat", align 8
  %6 = alloca %"class.cv::_InputArray", align 8
  %7 = alloca %"class.cv::Mat", align 8
  %8 = alloca %"class.cv::_OutputArray", align 8
  call void @llvm.lifetime.start.p0(i64 96, ptr nonnull %3) #27
  call void @_ZN2cv3MatC1Ev(ptr noundef nonnull align 8 dereferenceable(96) %3) #27
  call void @llvm.lifetime.start.p0(i64 24, ptr nonnull %4) #27
  call void @llvm.lifetime.start.p0(i64 96, ptr nonnull %5) #27
  invoke void @_ZN6cvtest6getMatERKN2cv11_InputArrayE(ptr dead_on_unwind nonnull writable sret(%"class.cv::Mat") align 8 %5, ptr noundef nonnull align 8 dereferenceable(24) %0)
          to label %9 unwind label %28

9:                                                ; preds = %2
  %10 = getelementptr inbounds nuw i8, ptr %4, i64 16
  store i32 0, ptr %10, align 8, !tbaa !10
  %11 = getelementptr inbounds nuw i8, ptr %4, i64 20
  store i32 0, ptr %11, align 4, !tbaa !13
  store i32 16842752, ptr %4, align 8, !tbaa !44
  %12 = getelementptr inbounds nuw i8, ptr %4, i64 8
  store ptr %5, ptr %12, align 8, !tbaa !46
  call void @llvm.lifetime.start.p0(i64 24, ptr nonnull %6) #27
  call void @llvm.lifetime.start.p0(i64 96, ptr nonnull %7) #27
  invoke void @_ZN6cvtest6getMatERKN2cv11_InputArrayE(ptr dead_on_unwind nonnull writable sret(%"class.cv::Mat") align 8 %7, ptr noundef nonnull align 8 dereferenceable(24) %1)
          to label %13 unwind label %30

13:                                               ; preds = %9
  %14 = getelementptr inbounds nuw i8, ptr %6, i64 16
  store i32 0, ptr %14, align 8, !tbaa !10
  %15 = getelementptr inbounds nuw i8, ptr %6, i64 20
  store i32 0, ptr %15, align 4, !tbaa !13
  store i32 16842752, ptr %6, align 8, !tbaa !44
  %16 = getelementptr inbounds nuw i8, ptr %6, i64 8
  store ptr %7, ptr %16, align 8, !tbaa !46
  call void @llvm.lifetime.start.p0(i64 24, ptr nonnull %8) #27
  %17 = getelementptr inbounds nuw i8, ptr %8, i64 8
  %18 = getelementptr inbounds nuw i8, ptr %8, i64 16
  store i64 0, ptr %18, align 8
  store i32 33619968, ptr %8, align 8, !tbaa !44
  store ptr %3, ptr %17, align 8, !tbaa !46
  %19 = invoke noundef nonnull align 8 dereferenceable(24) ptr @_ZN2cv7noArrayEv()
          to label %20 unwind label %32

20:                                               ; preds = %13
  invoke void @_ZN2cv13matchTemplateERKNS_11_InputArrayES2_RKNS_12_OutputArrayEiS2_(ptr noundef nonnull align 8 dereferenceable(24) %4, ptr noundef nonnull align 8 dereferenceable(24) %6, ptr noundef nonnull align 8 dereferenceable(24) %8, i32 noundef 3, ptr noundef nonnull align 8 dereferenceable(24) %19)
          to label %21 unwind label %32

21:                                               ; preds = %20
  call void @llvm.lifetime.end.p0(i64 24, ptr nonnull %8) #27
  call void @_ZN2cv3MatD1Ev(ptr noundef nonnull align 8 dereferenceable(96) %7) #27
  call void @llvm.lifetime.end.p0(i64 96, ptr nonnull %7) #27
  call void @llvm.lifetime.end.p0(i64 24, ptr nonnull %6) #27
  call void @_ZN2cv3MatD1Ev(ptr noundef nonnull align 8 dereferenceable(96) %5) #27
  call void @llvm.lifetime.end.p0(i64 96, ptr nonnull %5) #27
  call void @llvm.lifetime.end.p0(i64 24, ptr nonnull %4) #27
  %22 = getelementptr inbounds nuw i8, ptr %3, i64 16
  %23 = load ptr, ptr %22, align 8, !tbaa !102
  %24 = load float, ptr %23, align 4, !tbaa !168
  %25 = fadd float %24, -1.000000e+00
  %26 = call noundef float @llvm.fabs.f32(float %25)
  %27 = fpext float %26 to double
  call void @_ZN2cv3MatD1Ev(ptr noundef nonnull align 8 dereferenceable(96) %3) #27
  call void @llvm.lifetime.end.p0(i64 96, ptr nonnull %3) #27
  ret double %27

28:                                               ; preds = %2
  %29 = landingpad { ptr, i32 }
          cleanup
  br label %35

30:                                               ; preds = %9
  %31 = landingpad { ptr, i32 }
          cleanup
  br label %34

32:                                               ; preds = %20, %13
  %33 = landingpad { ptr, i32 }
          cleanup
  call void @llvm.lifetime.end.p0(i64 24, ptr nonnull %8) #27
  call void @_ZN2cv3MatD1Ev(ptr noundef nonnull align 8 dereferenceable(96) %7) #27
  br label %34

34:                                               ; preds = %32, %30
  %.pn.pn.pn = phi { ptr, i32 } [ %33, %32 ], [ %31, %30 ]
  call void @llvm.lifetime.end.p0(i64 96, ptr nonnull %7) #27
  call void @llvm.lifetime.end.p0(i64 24, ptr nonnull %6) #27
  call void @_ZN2cv3MatD1Ev(ptr noundef nonnull align 8 dereferenceable(96) %5) #27
  br label %35

35:                                               ; preds = %34, %28
  %.pn.pn.pn.pn.pn = phi { ptr, i32 } [ %.pn.pn.pn, %34 ], [ %29, %28 ]
  call void @llvm.lifetime.end.p0(i64 96, ptr nonnull %5) #27
  call void @llvm.lifetime.end.p0(i64 24, ptr nonnull %4) #27
  call void @_ZN2cv3MatD1Ev(ptr noundef nonnull align 8 dereferenceable(96) %3) #27
  call void @llvm.lifetime.end.p0(i64 96, ptr nonnull %3) #27
  resume { ptr, i32 } %.pn.pn.pn.pn.pn
}